target datalayout = "e-m:e-p270:32:32-p271:32:32-p272:64:64-i64:64-i128:128-f80:128-n8:16:32:64-S128"
target triple = "x86_64-pc-linux-gnu"

%"class.vcg::Point3" = type { [3 x float] }
%"class.vcg::TrackMode" = type { ptr }
%"class.std::vector" = type { %"struct.std::_Vector_base" }
%"struct.std::_Vector_base" = type { %"struct.std::_Vector_base<vcg::Point3<float>, std::allocator<vcg::Point3<float>>>::_Vector_impl" }
%"struct.std::_Vector_base<vcg::Point3<float>, std::allocator<vcg::Point3<float>>>::_Vector_impl" = type { %"struct.std::_Vector_base<vcg::Point3<float>, std::allocator<vcg::Point3<float>>>::_Vector_impl_data" }
%"struct.std::_Vector_base<vcg::Point3<float>, std::allocator<vcg::Point3<float>>>::_Vector_impl_data" = type { ptr, ptr, ptr }
%"class.vcg::PathMode" = type { %"class.vcg::TrackMode", %"class.std::vector", i8, float, float, float, float, %"class.vcg::Point3", float, %"class.vcg::Point3" }

; Function Attrs: mustprogress nounwind uwtable
define linkonce_odr void @_ZN3vcg6Point3IfEC2Ev(ptr noundef nonnull align 4 dereferenceable(12) %0) unnamed_addr #0 comdat align 2 {
  %2 = alloca ptr, align 8
  store ptr %0, ptr %2, align 8
  ret void
}

; Function Attrs: mustprogress uwtable
define void @_ZN3vcg8PathMode9SetActionEv(ptr noundef nonnull align 8 dereferenceable(80) %0) unnamed_addr #3 align 2 {
  %2 = alloca ptr, align 8
  %3 = alloca %"class.vcg::Point3", align 4
  %4 = alloca %"class.vcg::Point3", align 4
  store ptr %0, ptr %2, align 8
  %5 = load ptr, ptr %2, align 8
  call void @_ZN3vcg6Point3IfEC2Ev(ptr noundef nonnull align 4 dereferenceable(12) %3)
  call void @_ZN3vcg6Point3IfEC2Ev(ptr noundef nonnull align 4 dereferenceable(12) %4)
  %6 = getelementptr inbounds %"class.vcg::PathMode", ptr %5, i32 0, i32 3
  %7 = load float, ptr %6, align 4
  %8 = getelementptr inbounds %"class.vcg::PathMode", ptr %5, i32 0, i32 7
  call void @_ZN3vcg8PathMode9GetPointsEfRNS_6Point3IfEES3_S3_(ptr noundef nonnull align 8 dereferenceable(80) %5, float noundef %7, ptr noundef nonnull align 4 dereferenceable(12) %8, ptr noundef nonnull align 4 dereferenceable(12) %3, ptr noundef nonnull align 4 dereferenceable(12) %4)
  ret void
}