; Function Attrs: mustprogress nofree norecurse nosync nounwind memory(readwrite, inaccessiblemem: none) uwtable
define void @_ZN3vcg8PathMode9SetActionEv(ptr nocapture noundef nonnull align 8 dereferenceable(80) %0) unnamed_addr #6 align 2 {
  %2 = alloca %"class.vcg::Point3", align 4
  %3 = alloca %"class.vcg::Point3", align 4
  %4 = getelementptr inbounds i8, ptr %0, i64 36
  %5 = load float, ptr %4, align 4
  %6 = getelementptr inbounds i8, ptr %0, i64 52
  call void @_ZN3vcg8PathMode9GetPointsEfRNS_6Point3IfEES3_S3_(ptr noundef nonnull align 8 dereferenceable(80) %0, float noundef %5, ptr noundef nonnull align 4 dereferenceable(12) %6, ptr noundef nonnull align 4 dereferenceable(12) %2, ptr noundef nonnull align 4 dereferenceable(12) %3)
  ret void
}